target datalayout = "e-m:e-p270:32:32-p271:32:32-p272:64:64-i64:64-i128:128-f80:128-n8:16:32:64-S128"
target triple = "x86_64-pc-linux-gnu"

%"struct.std::atomic" = type { %"struct.std::__atomic_base" }
%"struct.std::__atomic_base" = type { i64 }

@_mi_numa_node_count = hidden global %"struct.std::atomic" zeroinitializer, align 8

; Function Attrs: mustprogress nounwind uwtable
define linkonce_odr noundef i32 @_ZStanSt12memory_orderSt23__memory_order_modifier(i32 noundef %0, i32 noundef %1) #5 comdat {
  %3 = alloca i32, align 4
  %4 = alloca i32, align 4
  store i32 %0, ptr %3, align 4, !tbaa !32
  store i32 %1, ptr %4, align 4, !tbaa !428
  %5 = load i32, ptr %3, align 4, !tbaa !32
  %6 = load i32, ptr %4, align 4, !tbaa !428
  %7 = and i32 %5, %6
  ret i32 %7
}

; Function Attrs: alwaysinline mustprogress nounwind uwtable
define linkonce_odr hidden noundef i64 @_ZNKSt13__atomic_baseImE4loadESt12memory_order(ptr noundef nonnull align 8 dereferenceable(8) %0, i32 noundef %1) #17 comdat align 2 {
  %3 = alloca ptr, align 8
  %4 = alloca i32, align 4
  %5 = alloca i32, align 4
  %6 = alloca i64, align 8
  store ptr %0, ptr %3, align 8, !tbaa !164
  store i32 %1, ptr %4, align 4, !tbaa !32
  %7 = load ptr, ptr %3, align 8
  call void @llvm.lifetime.start.p0(i64 4, ptr %5) #19
  %8 = load i32, ptr %4, align 4, !tbaa !32
  %9 = call noundef i32 @_ZStanSt12memory_orderSt23__memory_order_modifier(i32 noundef %8, i32 noundef 65535)
  store i32 %9, ptr %5, align 4, !tbaa !32
  br label %10

10:                                               ; preds = %2
  br label %11

11:                                               ; preds = %10
  br label %12

12:                                               ; preds = %11
  br label %13

13:                                               ; preds = %12
  br label %14

14:                                               ; preds = %13
  br label %15

15:                                               ; preds = %14
  %16 = getelementptr inbounds nuw %"struct.std::__atomic_base", ptr %7, i32 0, i32 0
  %17 = load i32, ptr %4, align 4, !tbaa !32
  switch i32 %17, label %18 [
    i32 1, label %20
    i32 2, label %20
    i32 5, label %22
  ]

18:                                               ; preds = %15
  %19 = load atomic i64, ptr %16 monotonic, align 8
  store i64 %19, ptr %6, align 8
  br label %24

20:                                               ; preds = %15, %15
  %21 = load atomic i64, ptr %16 acquire, align 8
  store i64 %21, ptr %6, align 8
  br label %24

22:                                               ; preds = %15
  %23 = load atomic i64, ptr %16 seq_cst, align 8
  store i64 %23, ptr %6, align 8
  br label %24

24:                                               ; preds = %22, %20, %18
  %25 = load i64, ptr %6, align 8, !tbaa !18
  call void @llvm.lifetime.end.p0(i64 4, ptr %5) #19
  ret i64 %25
}

; Function Attrs: inlinehint mustprogress nounwind uwtable
define linkonce_odr noundef i64 @_ZSt20atomic_load_explicitImET_PKSt6atomicIS0_ESt12memory_order(ptr noundef %0, i32 noundef %1) #3 comdat {
  %3 = alloca ptr, align 8
  %4 = alloca i32, align 4
  store ptr %0, ptr %3, align 8, !tbaa !30
  store i32 %1, ptr %4, align 4, !tbaa !32
  %5 = load ptr, ptr %3, align 8, !tbaa !30
  %6 = load i32, ptr %4, align 4, !tbaa !32
  %7 = call noundef i64 @_ZNKSt13__atomic_baseImE4loadESt12memory_order(ptr noundef nonnull align 8 dereferenceable(8) %5, i32 noundef %6) #19
  ret i64 %7
}

; Function Attrs: mustprogress nounwind uwtable
define hidden noundef i64 @_Z18_mi_prim_numa_nodev() #5 {
  %1 = alloca i64, align 8
  %2 = alloca i64, align 8
  %3 = alloca i64, align 8
  %4 = alloca i64, align 8
  %5 = alloca i32, align 4
  call void @llvm.lifetime.start.p0(i64 8, ptr %2) #19
  store i64 0, ptr %2, align 8, !tbaa !18
  call void @llvm.lifetime.start.p0(i64 8, ptr %3) #19
  store i64 0, ptr %3, align 8, !tbaa !18
  call void @llvm.lifetime.start.p0(i64 8, ptr %4) #19
  %6 = call i64 (i64, ...) @syscall(i64 noundef 309, ptr noundef %3, ptr noundef %2, i64 noundef 0) #19
  store i64 %6, ptr %4, align 8, !tbaa !18
  %7 = load i64, ptr %4, align 8, !tbaa !18
  %8 = icmp ne i64 %7, 0
  br i1 %8, label %9, label %10

9:                                                ; preds = %0
  store i64 0, ptr %1, align 8
  store i32 1, ptr %5, align 4
  br label %12

10:                                               ; preds = %0
  %11 = load i64, ptr %2, align 8, !tbaa !18
  store i64 %11, ptr %1, align 8
  store i32 1, ptr %5, align 4
  br label %12

12:                                               ; preds = %10, %9
  call void @llvm.lifetime.end.p0(i64 8, ptr %4) #19
  call void @llvm.lifetime.end.p0(i64 8, ptr %3) #19
  call void @llvm.lifetime.end.p0(i64 8, ptr %2) #19
  %13 = load i64, ptr %1, align 8
  ret i64 %13
}

; Function Attrs: inlinehint mustprogress uwtable
define internal noundef i64 @_ZL22_mi_os_numa_node_countv() #6 {
  %1 = alloca i64, align 8
  %2 = alloca i64, align 8
  %3 = alloca i32, align 4
  call void @llvm.lifetime.start.p0(i64 8, ptr %2) #19
  %4 = call noundef i64 @_ZSt20atomic_load_explicitImET_PKSt6atomicIS0_ESt12memory_order(ptr noundef @_mi_numa_node_count, i32 noundef 0) #19
  store i64 %4, ptr %2, align 8, !tbaa !18
  %5 = load i64, ptr %2, align 8, !tbaa !18
  %6 = icmp ugt i64 %5, 0
  %7 = xor i1 %6, true
  %8 = xor i1 %7, true
  %9 = zext i1 %8 to i64
  %10 = call i64 @llvm.expect.i64(i64 %9, i64 1)
  %11 = icmp ne i64 %10, 0
  br i1 %11, label %12, label %14

12:                                               ; preds = %0
  %13 = load i64, ptr %2, align 8, !tbaa !18
  store i64 %13, ptr %1, align 8
  store i32 1, ptr %3, align 4
  br label %16

14:                                               ; preds = %0
  %15 = call noundef i64 @_Z26_mi_os_numa_node_count_getv()
  store i64 %15, ptr %1, align 8
  store i32 1, ptr %3, align 4
  br label %16

16:                                               ; preds = %14, %12
  call void @llvm.lifetime.end.p0(i64 8, ptr %2) #19
  %17 = load i64, ptr %1, align 8
  ret i64 %17
}

; Function Attrs: mustprogress uwtable
define hidden noundef i32 @_Z20_mi_os_numa_node_getv() #0 {
  %1 = alloca i32, align 4
  %2 = alloca i64, align 8
  %3 = alloca i32, align 4
  %4 = alloca i64, align 8
  call void @llvm.lifetime.start.p0(i64 8, ptr %2) #19
  %5 = call noundef i64 @_ZL22_mi_os_numa_node_countv()
  store i64 %5, ptr %2, align 8, !tbaa !18
  %6 = load i64, ptr %2, align 8, !tbaa !18
  %7 = icmp ule i64 %6, 1
  br i1 %7, label %8, label %9

8:                                                ; preds = %0
  store i32 0, ptr %1, align 4
  store i32 1, ptr %3, align 4
  br label %21

9:                                                ; preds = %0
  call void @llvm.lifetime.start.p0(i64 8, ptr %4) #19
  %10 = call noundef i64 @_Z18_mi_prim_numa_nodev()
  store i64 %10, ptr %4, align 8, !tbaa !18
  %11 = load i64, ptr %4, align 8, !tbaa !18
  %12 = load i64, ptr %2, align 8, !tbaa !18
  %13 = icmp uge i64 %11, %12
  br i1 %13, label %14, label %18

14:                                               ; preds = %9
  %15 = load i64, ptr %4, align 8, !tbaa !18
  %16 = load i64, ptr %2, align 8, !tbaa !18
  %17 = urem i64 %15, %16
  store i64 %17, ptr %4, align 8, !tbaa !18
  br label %18

18:                                               ; preds = %14, %9
  %19 = load i64, ptr %4, align 8, !tbaa !18
  %20 = trunc i64 %19 to i32
  store i32 %20, ptr %1, align 4
  store i32 1, ptr %3, align 4
  call void @llvm.lifetime.end.p0(i64 8, ptr %4) #19
  br label %21

21:                                               ; preds = %18, %8
  call void @llvm.lifetime.end.p0(i64 8, ptr %2) #19
  %22 = load i32, ptr %1, align 4
  ret i32 %22
}