; Function Attrs: mustprogress uwtable
define hidden noundef i32 @_Z20_mi_os_numa_node_getv() local_unnamed_addr #6 {
  %1 = alloca i64, align 8
  %2 = alloca i64, align 8
  %3 = load atomic i64, ptr @_mi_numa_node_count monotonic, align 8
  %.not.i = icmp eq i64 %3, 0
  br i1 %.not.i, label %4, label %_ZL22_mi_os_numa_node_countv.exit, !prof !17

4:                                                ; preds = %0
  %5 = tail call noundef i64 @_Z26_mi_os_numa_node_count_getv()
  br label %_ZL22_mi_os_numa_node_countv.exit

_ZL22_mi_os_numa_node_countv.exit:                ; preds = %0, %4
  %.0.i = phi i64 [ %5, %4 ], [ %3, %0 ]
  %6 = icmp ult i64 %.0.i, 2
  br i1 %6, label %14, label %7

7:                                                ; preds = %_ZL22_mi_os_numa_node_countv.exit
  call void @llvm.lifetime.start.p0(i64 8, ptr nonnull %1) #55
  store i64 0, ptr %1, align 8, !tbaa !69
  call void @llvm.lifetime.start.p0(i64 8, ptr nonnull %2) #55
  store i64 0, ptr %2, align 8, !tbaa !69
  %8 = call i64 (i64, ...) @syscall(i64 noundef 309, ptr noundef nonnull %2, ptr noundef nonnull %1, i64 noundef 0) #55
  %.not.i10 = icmp eq i64 %8, 0
  %9 = load i64, ptr %1, align 8
  %.0.i11 = select i1 %.not.i10, i64 %9, i64 0
  call void @llvm.lifetime.end.p0(i64 8, ptr nonnull %2) #55
  call void @llvm.lifetime.end.p0(i64 8, ptr nonnull %1) #55
  %.not = icmp ult i64 %.0.i11, %.0.i
  br i1 %.not, label %12, label %10

10:                                               ; preds = %7
  %11 = urem i64 %.0.i11, %.0.i
  br label %12

12:                                               ; preds = %10, %7
  %.0 = phi i64 [ %11, %10 ], [ %.0.i11, %7 ]
  %13 = trunc i64 %.0 to i32
  br label %14

14:                                               ; preds = %_ZL22_mi_os_numa_node_countv.exit, %12
  %.07 = phi i32 [ %13, %12 ], [ 0, %_ZL22_mi_os_numa_node_countv.exit ]
  ret i32 %.07
}